target datalayout = "e-m:e-p270:32:32-p271:32:32-p272:64:64-i64:64-i128:128-f80:128-n8:16:32:64-S128"
target triple = "x86_64-pc-linux-gnu"

%struct.MAT_PARAMS_S = type { i32, ptr, ptr, ptr }

; Function Attrs: nounwind uwtable
define dso_local i32 @core_init_matrix(i32 noundef %0, ptr noundef %1, i32 noundef %2, ptr noundef %3) #0 {
  %5 = alloca i32, align 4
  %6 = alloca ptr, align 8
  %7 = alloca i32, align 4
  %8 = alloca ptr, align 8
  %9 = alloca i32, align 4
  %10 = alloca ptr, align 8
  %11 = alloca ptr, align 8
  %12 = alloca i32, align 4
  %13 = alloca i16, align 2
  %14 = alloca i32, align 4
  %15 = alloca i32, align 4
  store i32 %0, ptr %5, align 4, !tbaa !16
  store ptr %1, ptr %6, align 8, !tbaa !37
  store i32 %2, ptr %7, align 4, !tbaa !16
  store ptr %3, ptr %8, align 8, !tbaa !4
  call void @llvm.lifetime.start.p0(i64 4, ptr %9) #3
  store i32 0, ptr %9, align 4, !tbaa !16
  call void @llvm.lifetime.start.p0(i64 8, ptr %10) #3
  call void @llvm.lifetime.start.p0(i64 8, ptr %11) #3
  call void @llvm.lifetime.start.p0(i64 4, ptr %12) #3
  store i32 1, ptr %12, align 4, !tbaa !16
  call void @llvm.lifetime.start.p0(i64 2, ptr %13) #3
  call void @llvm.lifetime.start.p0(i64 4, ptr %14) #3
  store i32 0, ptr %14, align 4, !tbaa !16
  call void @llvm.lifetime.start.p0(i64 4, ptr %15) #3
  store i32 0, ptr %15, align 4, !tbaa !16
  %16 = load i32, ptr %7, align 4, !tbaa !16
  %17 = icmp eq i32 %16, 0
  br i1 %17, label %18, label %19

18:                                               ; preds = %4
  store i32 1, ptr %7, align 4, !tbaa !16
  br label %19

19:                                               ; preds = %18, %4
  br label %20

20:                                               ; preds = %24, %19
  %21 = load i32, ptr %15, align 4, !tbaa !16
  %22 = load i32, ptr %5, align 4, !tbaa !16
  %23 = icmp ult i32 %21, %22
  br i1 %23, label %24, label %32

24:                                               ; preds = %20
  %25 = load i32, ptr %14, align 4, !tbaa !16
  %26 = add i32 %25, 1
  store i32 %26, ptr %14, align 4, !tbaa !16
  %27 = load i32, ptr %14, align 4, !tbaa !16
  %28 = load i32, ptr %14, align 4, !tbaa !16
  %29 = mul i32 %27, %28
  %30 = mul i32 %29, 2
  %31 = mul i32 %30, 4
  store i32 %31, ptr %15, align 4, !tbaa !16
  br label %20, !llvm.loop !38

32:                                               ; preds = %20
  %33 = load i32, ptr %14, align 4, !tbaa !16
  %34 = sub i32 %33, 1
  store i32 %34, ptr %9, align 4, !tbaa !16
  %35 = load ptr, ptr %6, align 8, !tbaa !37
  %36 = ptrtoint ptr %35 to i32
  %37 = sub i32 %36, 1
  %38 = and i32 %37, -4
  %39 = add i32 4, %38
  %40 = zext i32 %39 to i64
  %41 = inttoptr i64 %40 to ptr
  store ptr %41, ptr %10, align 8, !tbaa !20
  %42 = load ptr, ptr %10, align 8, !tbaa !20
  %43 = load i32, ptr %9, align 4, !tbaa !16
  %44 = load i32, ptr %9, align 4, !tbaa !16
  %45 = mul i32 %43, %44
  %46 = zext i32 %45 to i64
  %47 = getelementptr inbounds nuw i16, ptr %42, i64 %46
  store ptr %47, ptr %11, align 8, !tbaa !20
  store i32 0, ptr %14, align 4, !tbaa !16
  br label %48

48:                                               ; preds = %103, %32
  %49 = load i32, ptr %14, align 4, !tbaa !16
  %50 = load i32, ptr %9, align 4, !tbaa !16
  %51 = icmp ult i32 %49, %50
  br i1 %51, label %52, label %106

52:                                               ; preds = %48
  store i32 0, ptr %15, align 4, !tbaa !16
  br label %53

53:                                               ; preds = %99, %52
  %54 = load i32, ptr %15, align 4, !tbaa !16
  %55 = load i32, ptr %9, align 4, !tbaa !16
  %56 = icmp ult i32 %54, %55
  br i1 %56, label %57, label %102

57:                                               ; preds = %53
  %58 = load i32, ptr %12, align 4, !tbaa !16
  %59 = load i32, ptr %7, align 4, !tbaa !16
  %60 = mul nsw i32 %58, %59
  %61 = srem i32 %60, 65536
  store i32 %61, ptr %7, align 4, !tbaa !16
  %62 = load i32, ptr %7, align 4, !tbaa !16
  %63 = load i32, ptr %12, align 4, !tbaa !16
  %64 = add nsw i32 %62, %63
  %65 = trunc i32 %64 to i16
  store i16 %65, ptr %13, align 2, !tbaa !9
  %66 = load i16, ptr %13, align 2, !tbaa !9
  %67 = sext i16 %66 to i32
  %68 = and i32 %67, 65535
  %69 = trunc i32 %68 to i16
  store i16 %69, ptr %13, align 2, !tbaa !9
  %70 = load i16, ptr %13, align 2, !tbaa !9
  %71 = load ptr, ptr %11, align 8, !tbaa !20
  %72 = load i32, ptr %14, align 4, !tbaa !16
  %73 = load i32, ptr %9, align 4, !tbaa !16
  %74 = mul i32 %72, %73
  %75 = load i32, ptr %15, align 4, !tbaa !16
  %76 = add i32 %74, %75
  %77 = zext i32 %76 to i64
  %78 = getelementptr inbounds nuw i16, ptr %71, i64 %77
  store i16 %70, ptr %78, align 2, !tbaa !9
  %79 = load i16, ptr %13, align 2, !tbaa !9
  %80 = sext i16 %79 to i32
  %81 = load i32, ptr %12, align 4, !tbaa !16
  %82 = add nsw i32 %80, %81
  %83 = trunc i32 %82 to i16
  store i16 %83, ptr %13, align 2, !tbaa !9
  %84 = load i16, ptr %13, align 2, !tbaa !9
  %85 = sext i16 %84 to i32
  %86 = and i32 %85, 255
  %87 = trunc i32 %86 to i16
  store i16 %87, ptr %13, align 2, !tbaa !9
  %88 = load i16, ptr %13, align 2, !tbaa !9
  %89 = load ptr, ptr %10, align 8, !tbaa !20
  %90 = load i32, ptr %14, align 4, !tbaa !16
  %91 = load i32, ptr %9, align 4, !tbaa !16
  %92 = mul i32 %90, %91
  %93 = load i32, ptr %15, align 4, !tbaa !16
  %94 = add i32 %92, %93
  %95 = zext i32 %94 to i64
  %96 = getelementptr inbounds nuw i16, ptr %89, i64 %95
  store i16 %88, ptr %96, align 2, !tbaa !9
  %97 = load i32, ptr %12, align 4, !tbaa !16
  %98 = add nsw i32 %97, 1
  store i32 %98, ptr %12, align 4, !tbaa !16
  br label %99

99:                                               ; preds = %57
  %100 = load i32, ptr %15, align 4, !tbaa !16
  %101 = add i32 %100, 1
  store i32 %101, ptr %15, align 4, !tbaa !16
  br label %53, !llvm.loop !39

102:                                              ; preds = %53
  br label %103

103:                                              ; preds = %102
  %104 = load i32, ptr %14, align 4, !tbaa !16
  %105 = add i32 %104, 1
  store i32 %105, ptr %14, align 4, !tbaa !16
  br label %48, !llvm.loop !40

106:                                              ; preds = %48
  %107 = load ptr, ptr %10, align 8, !tbaa !20
  %108 = load ptr, ptr %8, align 8, !tbaa !4
  %109 = getelementptr inbounds nuw %struct.MAT_PARAMS_S, ptr %108, i32 0, i32 1
  store ptr %107, ptr %109, align 8, !tbaa !19
  %110 = load ptr, ptr %11, align 8, !tbaa !20
  %111 = load ptr, ptr %8, align 8, !tbaa !4
  %112 = getelementptr inbounds nuw %struct.MAT_PARAMS_S, ptr %111, i32 0, i32 2
  store ptr %110, ptr %112, align 8, !tbaa !21
  %113 = load ptr, ptr %11, align 8, !tbaa !20
  %114 = load i32, ptr %9, align 4, !tbaa !16
  %115 = load i32, ptr %9, align 4, !tbaa !16
  %116 = mul i32 %114, %115
  %117 = zext i32 %116 to i64
  %118 = getelementptr inbounds nuw i16, ptr %113, i64 %117
  %119 = ptrtoint ptr %118 to i32
  %120 = sub i32 %119, 1
  %121 = and i32 %120, -4
  %122 = add i32 4, %121
  %123 = zext i32 %122 to i64
  %124 = inttoptr i64 %123 to ptr
  %125 = load ptr, ptr %8, align 8, !tbaa !4
  %126 = getelementptr inbounds nuw %struct.MAT_PARAMS_S, ptr %125, i32 0, i32 3
  store ptr %124, ptr %126, align 8, !tbaa !17
  %127 = load i32, ptr %9, align 4, !tbaa !16
  %128 = load ptr, ptr %8, align 8, !tbaa !4
  %129 = getelementptr inbounds nuw %struct.MAT_PARAMS_S, ptr %128, i32 0, i32 0
  store i32 %127, ptr %129, align 8, !tbaa !11
  %130 = load i32, ptr %9, align 4, !tbaa !16
  call void @llvm.lifetime.end.p0(i64 4, ptr %15) #3
  call void @llvm.lifetime.end.p0(i64 4, ptr %14) #3
  call void @llvm.lifetime.end.p0(i64 2, ptr %13) #3
  call void @llvm.lifetime.end.p0(i64 4, ptr %12) #3
  call void @llvm.lifetime.end.p0(i64 8, ptr %11) #3
  call void @llvm.lifetime.end.p0(i64 8, ptr %10) #3
  call void @llvm.lifetime.end.p0(i64 4, ptr %9) #3
  ret i32 %130
}