; Function Attrs: nofree norecurse nosync nounwind memory(write, inaccessiblemem: none) uwtable
define dso_local i32 @core_init_matrix(i32 noundef %0, ptr noundef %1, i32 noundef %2, ptr noundef writeonly captures(none) %3) local_unnamed_addr #4 {
  %spec.store.select = tail call i32 @llvm.umax.i32(i32 %2, i32 1)
  %.not = icmp eq i32 %0, 0
  br i1 %.not, label %._crit_edge.thread, label %.lr.ph

._crit_edge.thread:                               ; preds = %4
  %5 = ptrtoint ptr %1 to i64
  %6 = add i64 %5, 3
  %7 = and i64 %6, 4294967292
  %8 = inttoptr i64 %7 to ptr
  %9 = getelementptr inbounds nuw i8, ptr %8, i64 2
  br label %.preheader.preheader

.lr.ph:                                           ; preds = %4, %.lr.ph
  %.04653 = phi i32 [ %10, %.lr.ph ], [ 0, %4 ]
  %10 = add i32 %.04653, 1
  %11 = shl i32 %10, 3
  %12 = mul i32 %11, %10
  %13 = icmp ult i32 %12, %0
  br i1 %13, label %.lr.ph, label %._crit_edge, !llvm.loop !33

._crit_edge:                                      ; preds = %.lr.ph
  %14 = ptrtoint ptr %1 to i64
  %15 = add i64 %14, 3
  %16 = and i64 %15, 4294967292
  %17 = inttoptr i64 %16 to ptr
  %18 = mul i32 %.04653, %.04653
  %19 = zext i32 %18 to i64
  %20 = getelementptr inbounds nuw i16, ptr %17, i64 %19
  %.not61 = icmp eq i32 %.04653, 0
  br i1 %.not61, label %._crit_edge60, label %.preheader.preheader

.preheader.preheader:                             ; preds = %._crit_edge.thread, %._crit_edge
  %21 = phi ptr [ %9, %._crit_edge.thread ], [ %20, %._crit_edge ]
  %22 = phi i64 [ 1, %._crit_edge.thread ], [ %19, %._crit_edge ]
  %23 = phi ptr [ %8, %._crit_edge.thread ], [ %17, %._crit_edge ]
  %.046.lcssa67 = phi i32 [ -1, %._crit_edge.thread ], [ %.04653, %._crit_edge ]
  %wide.trip.count = zext i32 %.046.lcssa67 to i64
  br label %.preheader

.preheader:                                       ; preds = %.preheader.preheader, %39
  %.14759 = phi i32 [ %40, %39 ], [ 0, %.preheader.preheader ]
  %.04858 = phi i32 [ %27, %39 ], [ %spec.store.select, %.preheader.preheader ]
  %.05057 = phi i32 [ %38, %39 ], [ 1, %.preheader.preheader ]
  %24 = mul i32 %.14759, %.046.lcssa67
  br label %25

25:                                               ; preds = %.preheader, %25
  %indvars.iv = phi i64 [ 0, %.preheader ], [ %indvars.iv.next, %25 ]
  %.14955 = phi i32 [ %.04858, %.preheader ], [ %27, %25 ]
  %.15154 = phi i32 [ %.05057, %.preheader ], [ %38, %25 ]
  %26 = mul nsw i32 %.14955, %.15154
  %27 = srem i32 %26, 65536
  %28 = add nsw i32 %27, %.15154
  %29 = trunc i32 %28 to i16
  %30 = trunc nuw i64 %indvars.iv to i32
  %31 = add i32 %24, %30
  %32 = zext i32 %31 to i64
  %33 = getelementptr inbounds nuw i16, ptr %21, i64 %32
  store i16 %29, ptr %33, align 2, !tbaa !15
  %34 = add i32 %28, %.15154
  %35 = trunc i32 %34 to i16
  %36 = and i16 %35, 255
  %37 = getelementptr inbounds nuw i16, ptr %23, i64 %32
  store i16 %36, ptr %37, align 2, !tbaa !15
  %38 = add nsw i32 %.15154, 1
  %indvars.iv.next = add nuw nsw i64 %indvars.iv, 1
  %exitcond.not = icmp eq i64 %indvars.iv.next, %wide.trip.count
  br i1 %exitcond.not, label %39, label %25, !llvm.loop !34

39:                                               ; preds = %25
  %40 = add nuw i32 %.14759, 1
  %exitcond64.not = icmp eq i32 %40, %.046.lcssa67
  br i1 %exitcond64.not, label %._crit_edge60, label %.preheader, !llvm.loop !35

._crit_edge60:                                    ; preds = %39, %._crit_edge
  %41 = phi ptr [ %20, %._crit_edge ], [ %21, %39 ]
  %42 = phi i64 [ %19, %._crit_edge ], [ %22, %39 ]
  %43 = phi ptr [ %17, %._crit_edge ], [ %23, %39 ]
  %.046.lcssa68 = phi i32 [ 0, %._crit_edge ], [ %.046.lcssa67, %39 ]
  %44 = getelementptr inbounds nuw i8, ptr %3, i64 8
  store ptr %43, ptr %44, align 8, !tbaa !13
  %45 = getelementptr inbounds nuw i8, ptr %3, i64 16
  store ptr %41, ptr %45, align 8, !tbaa !14
  %46 = getelementptr inbounds nuw i16, ptr %41, i64 %42
  %47 = ptrtoint ptr %46 to i64
  %48 = add nuw nsw i64 %47, 3
  %49 = and i64 %48, 4294967292
  %50 = inttoptr i64 %49 to ptr
  %51 = getelementptr inbounds nuw i8, ptr %3, i64 24
  store ptr %50, ptr %51, align 8, !tbaa !12
  store i32 %.046.lcssa68, ptr %3, align 8, !tbaa !4
  ret i32 %.046.lcssa68
}